target datalayout = "e-m:e-p270:32:32-p271:32:32-p272:64:64-i64:64-i128:128-f80:128-n8:16:32:64-S128"
target triple = "x86_64-pc-linux-gnu"

%struct.ScanTable = type { ptr, [64 x i8], [64 x i8] }
%struct.MpegEncContext = type { ptr, i32, i32, i32, [12 x i32], i32, %struct.ScanTable, %struct.ScanTable, [64 x i8], [64 x i8], ptr, ptr, i32, i32, i32, i32, i32, i32, i32, i32, i32, i32, i32, i32, i32, i32, i32, i32, i32, i32, i32, i32, i64, i64, ptr, %struct.BufferPoolContext, i32, i32, %union.anon, i32, %struct.MPVWorkPicture, %struct.MPVWorkPicture, %struct.MPVWorkPicture, i32, [3 x i32], ptr, [3 x ptr], ptr, ptr, ptr, ptr, ptr, ptr, [3 x ptr], i32, ptr, ptr, ptr, ptr, %struct.ScratchpadContext, i32, i32, i32, i32, i32, i32, %struct.BlockDSPContext, %struct.H264ChromaContext, %struct.HpelDSPContext, %struct.IDCTDSPContext, %struct.QpelDSPContext, %struct.VideoDSPContext, %struct.H263DSPContext, ptr, [2 x [2 x ptr]], i32, i32, [2 x [4 x [2 x i32]]], [2 x [2 x i32]], [2 x [2 x [2 x i32]]], [2 x [64 x i16]], i32, i32, i32, i32, i32, [6 x i32], [6 x i32], [3 x ptr], ptr, [64 x i16], [64 x i16], [64 x i16], [64 x i16], i32, i32, %struct.GetBitContext, i32, i32, i32, i32, i32, i32, i32, i32, i32, i32, i32, i32, i32, i32, i32, i64, i64, i16, i16, i16, i16, i32, i32, i32, i32, i32, i32, i32, i32, i32, [3 x i32], i32, i32, i32, i32, i32, i32, %struct.GetBitContext, i32, [2 x [2 x i32]], i32, i32, i32, i32, i32, i32, i32, i32, i32, i32, i32, i32, i32, i32, [2 x i32], i32, i32, ptr, ptr, ptr, ptr, ptr, i32, i32, %struct.ERContext }
%struct.BufferPoolContext = type { ptr, ptr, ptr, ptr, ptr, i32, i32, i32 }
%union.anon = type { [32 x ptr] }
%struct.MPVWorkPicture = type { [3 x ptr], [3 x i64], ptr, ptr, [2 x ptr], ptr, ptr, [2 x ptr], i32 }
%struct.ScratchpadContext = type { ptr, ptr, %union.anon.0, i32 }
%union.anon.0 = type { ptr }
%struct.BlockDSPContext = type { ptr, ptr, [2 x ptr] }
%struct.H264ChromaContext = type { [4 x ptr], [4 x ptr] }
%struct.HpelDSPContext = type { [4 x [4 x ptr]], [4 x [4 x ptr]], [4 x [4 x ptr]], [4 x ptr] }
%struct.IDCTDSPContext = type { ptr, ptr, ptr, ptr, ptr, ptr, [64 x i8], i32, i32 }
%struct.QpelDSPContext = type { [2 x [16 x ptr]], [2 x [16 x ptr]], [2 x [16 x ptr]] }
%struct.VideoDSPContext = type { ptr, ptr }
%struct.H263DSPContext = type { ptr, ptr }
%struct.GetBitContext = type { ptr, ptr, i32, i32, i32 }
%struct.ERContext = type { ptr, ptr, i32, ptr, i32, i32, i32, i64, i64, i32, i32, ptr, ptr, [3 x ptr], ptr, ptr, [2 x [4 x [2 x i32]]], %struct.ERPicture, %struct.ERPicture, %struct.ERPicture, [2 x ptr], [2 x ptr], i16, i16, i32, i32, ptr, ptr }
%struct.ERPicture = type { ptr, ptr, ptr, [2 x ptr], [2 x ptr], ptr, i32 }

; Function Attrs: cold nounwind optsize uwtable
define i32 @ff_mpv_init_duplicate_contexts(ptr noundef %0) #0 {
  %2 = alloca i32, align 4
  %3 = alloca ptr, align 8
  %4 = alloca i32, align 4
  %5 = alloca i32, align 4
  %6 = alloca i64, align 8
  %7 = alloca i32, align 4
  %8 = alloca i32, align 4
  store ptr %0, ptr %3, align 8, !tbaa !18
  call void @llvm.lifetime.start.p0(i64 4, ptr %4) #7
  %9 = load ptr, ptr %3, align 8, !tbaa !18
  %10 = getelementptr inbounds nuw %struct.MpegEncContext, ptr %9, i32 0, i32 39
  %11 = load i32, ptr %10, align 8, !tbaa !50
  store i32 %11, ptr %4, align 4, !tbaa !13
  call void @llvm.lifetime.start.p0(i64 4, ptr %5) #7
  call void @llvm.lifetime.start.p0(i64 8, ptr %6) #7
  %12 = load ptr, ptr %3, align 8, !tbaa !18
  %13 = getelementptr inbounds nuw %struct.MpegEncContext, ptr %12, i32 0, i32 160
  %14 = load i32, ptr %13, align 4, !tbaa !51
  %15 = icmp ne i32 %14, 0
  br i1 %15, label %16, label %21

16:                                               ; preds = %1
  %17 = load ptr, ptr %3, align 8, !tbaa !18
  %18 = getelementptr inbounds nuw %struct.MpegEncContext, ptr %17, i32 0, i32 160
  %19 = load i32, ptr %18, align 4, !tbaa !51
  %20 = zext i32 %19 to i64
  br label %22

21:                                               ; preds = %1
  br label %22

22:                                               ; preds = %21, %16
  %23 = phi i64 [ %20, %16 ], [ 4808, %21 ]
  store i64 %23, ptr %6, align 8, !tbaa !52
  call void @llvm.lifetime.start.p0(i64 4, ptr %7) #7
  store i32 1, ptr %7, align 4, !tbaa !13
  br label %24

24:                                               ; preds = %93, %22
  %25 = load i32, ptr %7, align 4, !tbaa !13
  %26 = load i32, ptr %4, align 4, !tbaa !13
  %27 = icmp slt i32 %25, %26
  br i1 %27, label %29, label %28

28:                                               ; preds = %24
  store i32 2, ptr %8, align 4
  br label %96

29:                                               ; preds = %24
  %30 = load ptr, ptr %3, align 8, !tbaa !18
  %31 = load i64, ptr %6, align 8, !tbaa !52
  %32 = call ptr @av_memdup(ptr noundef %30, i64 noundef %31)
  %33 = load ptr, ptr %3, align 8, !tbaa !18
  %34 = getelementptr inbounds nuw %struct.MpegEncContext, ptr %33, i32 0, i32 38
  %35 = load i32, ptr %7, align 4, !tbaa !13
  %36 = sext i32 %35 to i64
  %37 = getelementptr inbounds [32 x ptr], ptr %34, i64 0, i64 %36
  store ptr %32, ptr %37, align 8, !tbaa !15
  %38 = load ptr, ptr %3, align 8, !tbaa !18
  %39 = getelementptr inbounds nuw %struct.MpegEncContext, ptr %38, i32 0, i32 38
  %40 = load i32, ptr %7, align 4, !tbaa !13
  %41 = sext i32 %40 to i64
  %42 = getelementptr inbounds [32 x ptr], ptr %39, i64 0, i64 %41
  %43 = load ptr, ptr %42, align 8, !tbaa !15
  %44 = icmp ne ptr %43, null
  br i1 %44, label %46, label %45

45:                                               ; preds = %29
  store i32 -12, ptr %2, align 4
  store i32 1, ptr %8, align 4
  br label %96

46:                                               ; preds = %29
  %47 = load ptr, ptr %3, align 8, !tbaa !18
  %48 = getelementptr inbounds nuw %struct.MpegEncContext, ptr %47, i32 0, i32 38
  %49 = load i32, ptr %7, align 4, !tbaa !13
  %50 = sext i32 %49 to i64
  %51 = getelementptr inbounds [32 x ptr], ptr %48, i64 0, i64 %50
  %52 = load ptr, ptr %51, align 8, !tbaa !15
  %53 = call i32 @init_duplicate_context(ptr noundef %52) #8
  store i32 %53, ptr %5, align 4, !tbaa !13
  %54 = icmp slt i32 %53, 0
  br i1 %54, label %55, label %57

55:                                               ; preds = %46
  %56 = load i32, ptr %5, align 4, !tbaa !13
  store i32 %56, ptr %2, align 4
  store i32 1, ptr %8, align 4
  br label %96

57:                                               ; preds = %46
  %58 = load ptr, ptr %3, align 8, !tbaa !18
  %59 = getelementptr inbounds nuw %struct.MpegEncContext, ptr %58, i32 0, i32 26
  %60 = load i32, ptr %59, align 8, !tbaa !53
  %61 = load i32, ptr %7, align 4, !tbaa !13
  %62 = mul nsw i32 %60, %61
  %63 = load i32, ptr %4, align 4, !tbaa !13
  %64 = sdiv i32 %63, 2
  %65 = add nsw i32 %62, %64
  %66 = load i32, ptr %4, align 4, !tbaa !13
  %67 = sdiv i32 %65, %66
  %68 = load ptr, ptr %3, align 8, !tbaa !18
  %69 = getelementptr inbounds nuw %struct.MpegEncContext, ptr %68, i32 0, i32 38
  %70 = load i32, ptr %7, align 4, !tbaa !13
  %71 = sext i32 %70 to i64
  %72 = getelementptr inbounds [32 x ptr], ptr %69, i64 0, i64 %71
  %73 = load ptr, ptr %72, align 8, !tbaa !15
  %74 = getelementptr inbounds nuw %struct.MpegEncContext, ptr %73, i32 0, i32 36
  store i32 %67, ptr %74, align 8, !tbaa !54
  %75 = load ptr, ptr %3, align 8, !tbaa !18
  %76 = getelementptr inbounds nuw %struct.MpegEncContext, ptr %75, i32 0, i32 26
  %77 = load i32, ptr %76, align 8, !tbaa !53
  %78 = load i32, ptr %7, align 4, !tbaa !13
  %79 = add nsw i32 %78, 1
  %80 = mul nsw i32 %77, %79
  %81 = load i32, ptr %4, align 4, !tbaa !13
  %82 = sdiv i32 %81, 2
  %83 = add nsw i32 %80, %82
  %84 = load i32, ptr %4, align 4, !tbaa !13
  %85 = sdiv i32 %83, %84
  %86 = load ptr, ptr %3, align 8, !tbaa !18
  %87 = getelementptr inbounds nuw %struct.MpegEncContext, ptr %86, i32 0, i32 38
  %88 = load i32, ptr %7, align 4, !tbaa !13
  %89 = sext i32 %88 to i64
  %90 = getelementptr inbounds [32 x ptr], ptr %87, i64 0, i64 %89
  %91 = load ptr, ptr %90, align 8, !tbaa !15
  %92 = getelementptr inbounds nuw %struct.MpegEncContext, ptr %91, i32 0, i32 37
  store i32 %85, ptr %92, align 4, !tbaa !55
  br label %93

93:                                               ; preds = %57
  %94 = load i32, ptr %7, align 4, !tbaa !13
  %95 = add nsw i32 %94, 1
  store i32 %95, ptr %7, align 4, !tbaa !13
  br label %24, !llvm.loop !56

96:                                               ; preds = %55, %45, %28
  call void @llvm.lifetime.end.p0(i64 4, ptr %7) #7
  %97 = load i32, ptr %8, align 4
  switch i32 %97, label %122 [
    i32 2, label %98
  ]

98:                                               ; preds = %96
  %99 = load ptr, ptr %3, align 8, !tbaa !18
  %100 = getelementptr inbounds nuw %struct.MpegEncContext, ptr %99, i32 0, i32 36
  store i32 0, ptr %100, align 8, !tbaa !54
  %101 = load i32, ptr %4, align 4, !tbaa !13
  %102 = icmp sgt i32 %101, 1
  br i1 %102, label %103, label %112

103:                                              ; preds = %98
  %104 = load ptr, ptr %3, align 8, !tbaa !18
  %105 = getelementptr inbounds nuw %struct.MpegEncContext, ptr %104, i32 0, i32 26
  %106 = load i32, ptr %105, align 8, !tbaa !53
  %107 = load i32, ptr %4, align 4, !tbaa !13
  %108 = sdiv i32 %107, 2
  %109 = add nsw i32 %106, %108
  %110 = load i32, ptr %4, align 4, !tbaa !13
  %111 = sdiv i32 %109, %110
  br label %116

112:                                              ; preds = %98
  %113 = load ptr, ptr %3, align 8, !tbaa !18
  %114 = getelementptr inbounds nuw %struct.MpegEncContext, ptr %113, i32 0, i32 26
  %115 = load i32, ptr %114, align 8, !tbaa !53
  br label %116

116:                                              ; preds = %112, %103
  %117 = phi i32 [ %111, %103 ], [ %115, %112 ]
  %118 = load ptr, ptr %3, align 8, !tbaa !18
  %119 = getelementptr inbounds nuw %struct.MpegEncContext, ptr %118, i32 0, i32 37
  store i32 %117, ptr %119, align 4, !tbaa !55
  %120 = load ptr, ptr %3, align 8, !tbaa !18
  %121 = call i32 @init_duplicate_context(ptr noundef %120) #8
  store i32 %121, ptr %2, align 4
  store i32 1, ptr %8, align 4
  br label %122

122:                                              ; preds = %116, %96
  call void @llvm.lifetime.end.p0(i64 8, ptr %6) #7
  call void @llvm.lifetime.end.p0(i64 4, ptr %5) #7
  call void @llvm.lifetime.end.p0(i64 4, ptr %4) #7
  %123 = load i32, ptr %2, align 4
  ret i32 %123
}