; Function Attrs: cold nounwind optsize uwtable
define range(i32 -12, 1) i32 @ff_mpv_init_duplicate_contexts(ptr noundef %0) local_unnamed_addr #2 {
  %2 = getelementptr inbounds nuw i8, ptr %0, i64 912
  %3 = load i32, ptr %2, align 8, !tbaa !44
  %4 = getelementptr inbounds nuw i8, ptr %0, i64 4332
  %5 = load i32, ptr %4, align 4, !tbaa !45
  %.not = icmp eq i32 %5, 0
  %narrow = select i1 %.not, i32 4808, i32 %5
  %spec.select = zext i32 %narrow to i64
  %.not4446 = icmp sgt i32 %3, 1
  br i1 %.not4446, label %.lr.ph, label %._crit_edge.thread

._crit_edge.thread:                               ; preds = %1
  %6 = getelementptr inbounds nuw i8, ptr %0, i64 648
  store i32 0, ptr %6, align 8, !tbaa !46
  %7 = getelementptr inbounds nuw i8, ptr %0, i64 544
  %8 = load i32, ptr %7, align 8, !tbaa !47
  br label %38

.lr.ph:                                           ; preds = %1
  %9 = getelementptr inbounds nuw i8, ptr %0, i64 656
  %10 = getelementptr inbounds nuw i8, ptr %0, i64 544
  %11 = lshr i32 %3, 1
  %wide.trip.count = zext nneg i32 %3 to i64
  br label %12

12:                                               ; preds = %.lr.ph, %18
  %indvars.iv = phi i64 [ 1, %.lr.ph ], [ %indvars.iv.next, %18 ]
  %13 = tail call ptr @av_memdup(ptr noundef nonnull %0, i64 noundef %spec.select) #12
  %14 = getelementptr inbounds nuw [32 x ptr], ptr %9, i64 0, i64 %indvars.iv
  store ptr %13, ptr %14, align 8, !tbaa !10
  %.not43 = icmp eq ptr %13, null
  br i1 %.not43, label %.thread, label %15

15:                                               ; preds = %12
  %16 = tail call fastcc i32 @init_duplicate_context(ptr noundef nonnull %13) #13
  %17 = icmp slt i32 %16, 0
  br i1 %17, label %.thread, label %18

18:                                               ; preds = %15
  %19 = load i32, ptr %10, align 8, !tbaa !47
  %20 = trunc nuw nsw i64 %indvars.iv to i32
  %21 = mul nsw i32 %19, %20
  %22 = add nsw i32 %21, %11
  %23 = sdiv i32 %22, %3
  %24 = load ptr, ptr %14, align 8, !tbaa !10
  %25 = getelementptr inbounds nuw i8, ptr %24, i64 648
  store i32 %23, ptr %25, align 8, !tbaa !46
  %indvars.iv.next = add nuw nsw i64 %indvars.iv, 1
  %26 = trunc nuw nsw i64 %indvars.iv.next to i32
  %27 = mul nsw i32 %19, %26
  %28 = add nsw i32 %27, %11
  %29 = sdiv i32 %28, %3
  %30 = load ptr, ptr %14, align 8, !tbaa !10
  %31 = getelementptr inbounds nuw i8, ptr %30, i64 652
  store i32 %29, ptr %31, align 4, !tbaa !48
  %exitcond.not = icmp eq i64 %indvars.iv.next, %wide.trip.count
  br i1 %exitcond.not, label %._crit_edge, label %12, !llvm.loop !49

._crit_edge:                                      ; preds = %18
  %32 = getelementptr inbounds nuw i8, ptr %0, i64 648
  store i32 0, ptr %32, align 8, !tbaa !46
  %33 = getelementptr inbounds nuw i8, ptr %0, i64 544
  %34 = load i32, ptr %33, align 8, !tbaa !47
  %35 = lshr i32 %3, 1
  %36 = add nsw i32 %34, %35
  %37 = sdiv i32 %36, %3
  br label %38

38:                                               ; preds = %._crit_edge.thread, %._crit_edge
  %39 = phi i32 [ %37, %._crit_edge ], [ %8, %._crit_edge.thread ]
  %40 = getelementptr inbounds nuw i8, ptr %0, i64 652
  store i32 %39, ptr %40, align 4, !tbaa !48
  %41 = tail call fastcc i32 @init_duplicate_context(ptr noundef nonnull %0) #13
  br label %.thread

.thread:                                          ; preds = %12, %15, %38
  %.1 = phi i32 [ %41, %38 ], [ -12, %12 ], [ %16, %15 ]
  ret i32 %.1
}